; Function Attrs: nounwind uwtable
define ptr @l_Lean_Json_getObjValAs_x3f___at___private_Lean_Data_Lsp_TextSync_0__Lean_Lsp_fromJsonTextDocumentChangeRegistrationOptions____x40_Lean_Data_Lsp_TextSync___hyg_253____spec__1(ptr noundef %0, ptr noundef %1) local_unnamed_addr #1 {
  %3 = tail call ptr @l_Lean_Json_getObjValD(ptr noundef %0, ptr noundef %1) #5
  %4 = tail call ptr @l_Lean_Json_getNat_x3f(ptr noundef %3) #5
  %5 = ptrtoint ptr %4 to i64
  %6 = and i64 %5, 1
  %.not.i43 = icmp eq i64 %6, 0
  br i1 %.not.i43, label %lean_obj_tag.exit.thread, label %lean_obj_tag.exit

lean_obj_tag.exit:                                ; preds = %2
  %7 = and i64 %5, 8589934590
  %8 = icmp eq i64 %7, 0
  br i1 %8, label %lean_dec.exit28, label %17

lean_obj_tag.exit.thread:                         ; preds = %2
  %9 = getelementptr i8, ptr %4, i64 4
  %.val.i = load i32, ptr %9, align 4
  %10 = icmp ult i32 %.val.i, 16777216
  br i1 %10, label %.thread, label %17

.thread:                                          ; preds = %lean_obj_tag.exit.thread
  %11 = load i32, ptr %4, align 4, !tbaa !4
  %12 = icmp sgt i32 %11, 1
  br i1 %12, label %13, label %15, !prof !9

13:                                               ; preds = %.thread
  %14 = add nsw i32 %11, -1
  store i32 %14, ptr %4, align 4, !tbaa !4
  br label %lean_dec.exit28

15:                                               ; preds = %.thread
  %.not.i = icmp eq i32 %11, 0
  br i1 %.not.i, label %lean_dec.exit28, label %16

16:                                               ; preds = %15
  tail call void @lean_dec_ref_cold(ptr noundef nonnull %4) #5
  br label %lean_dec.exit28

17:                                               ; preds = %lean_obj_tag.exit.thread, %lean_obj_tag.exit
  %18 = getelementptr inbounds nuw i8, ptr %4, i64 8
  %19 = load ptr, ptr %18, align 8, !tbaa !10
  %20 = ptrtoint ptr %19 to i64
  %21 = and i64 %20, 1
  %.not = icmp eq i64 %21, 0
  br i1 %.not, label %22, label %lean_inc.exit

22:                                               ; preds = %17
  %.val.i45 = load i32, ptr %19, align 4, !tbaa !4
  %23 = icmp sgt i32 %.val.i45, 0
  br i1 %23, label %24, label %26, !prof !9

24:                                               ; preds = %22
  %25 = add nuw i32 %.val.i45, 1
  store i32 %25, ptr %19, align 4, !tbaa !4
  br label %lean_inc.exit

26:                                               ; preds = %22
  %.not.i46 = icmp eq i32 %.val.i45, 0
  br i1 %.not.i46, label %lean_inc.exit, label %27

27:                                               ; preds = %26
  tail call void @lean_inc_ref_cold(ptr noundef nonnull %19) #5
  br label %lean_inc.exit

lean_inc.exit:                                    ; preds = %27, %26, %24, %17
  br i1 %.not.i43, label %28, label %lean_dec.exit27

28:                                               ; preds = %lean_inc.exit
  %29 = load i32, ptr %4, align 4, !tbaa !4
  %30 = icmp sgt i32 %29, 1
  br i1 %30, label %31, label %33, !prof !9

31:                                               ; preds = %28
  %32 = add nsw i32 %29, -1
  store i32 %32, ptr %4, align 4, !tbaa !4
  br label %lean_dec.exit27

33:                                               ; preds = %28
  %.not.i29 = icmp eq i32 %29, 0
  br i1 %.not.i29, label %lean_dec.exit27, label %34

34:                                               ; preds = %33
  tail call void @lean_dec_ref_cold(ptr noundef nonnull %4) #5
  br label %lean_dec.exit27

lean_dec.exit27:                                  ; preds = %34, %33, %31, %lean_inc.exit
  br i1 %.not, label %lean_nat_eq.exit.thread, label %lean_nat_eq.exit, !prof !15

lean_nat_eq.exit:                                 ; preds = %lean_dec.exit27
  switch i64 %20, label %lean_nat_eq.exit42.thread [
    i64 1, label %lean_dec.exit28
    i64 3, label %lean_dec.exit28.fold.split
  ]

lean_nat_eq.exit.thread:                          ; preds = %lean_dec.exit27
  %35 = tail call zeroext i1 @lean_nat_big_eq(ptr noundef %19, ptr noundef nonnull inttoptr (i64 1 to ptr)) #5
  br i1 %35, label %.thread54, label %lean_nat_eq.exit39.thread

lean_nat_eq.exit39.thread:                        ; preds = %lean_nat_eq.exit.thread
  %36 = tail call zeroext i1 @lean_nat_big_eq(ptr noundef %19, ptr noundef nonnull inttoptr (i64 3 to ptr)) #5
  br i1 %36, label %.thread53, label %.thread51

lean_nat_eq.exit42.thread:                        ; preds = %lean_nat_eq.exit
  %37 = icmp eq ptr %19, inttoptr (i64 5 to ptr)
  br label %lean_dec.exit26

.thread51:                                        ; preds = %lean_nat_eq.exit39.thread
  %38 = tail call zeroext i1 @lean_nat_big_eq(ptr noundef %19, ptr noundef nonnull inttoptr (i64 5 to ptr)) #5
  %39 = load i32, ptr %19, align 4, !tbaa !4
  %40 = icmp sgt i32 %39, 1
  br i1 %40, label %41, label %43, !prof !9

41:                                               ; preds = %.thread51
  %42 = add nsw i32 %39, -1
  store i32 %42, ptr %19, align 4, !tbaa !4
  br label %lean_dec.exit26

43:                                               ; preds = %.thread51
  %.not.i31 = icmp eq i32 %39, 0
  br i1 %.not.i31, label %lean_dec.exit26, label %44

44:                                               ; preds = %43
  tail call void @lean_dec_ref_cold(ptr noundef nonnull %19) #5
  br label %lean_dec.exit26

lean_dec.exit26:                                  ; preds = %44, %43, %41, %lean_nat_eq.exit42.thread
  %.in = phi i1 [ %37, %lean_nat_eq.exit42.thread ], [ %38, %41 ], [ %38, %43 ], [ %38, %44 ]
  %l_Lean_Lsp_instFromJsonTextDocumentSyncKind___closed__2.l_Lean_Lsp_instFromJsonTextDocumentSyncKind___closed__3 = select i1 %.in, ptr @l_Lean_Lsp_instFromJsonTextDocumentSyncKind___closed__3, ptr @l_Lean_Lsp_instFromJsonTextDocumentSyncKind___closed__2
  br label %lean_dec.exit28

.thread53:                                        ; preds = %lean_nat_eq.exit39.thread
  %45 = load i32, ptr %19, align 4, !tbaa !4
  %46 = icmp sgt i32 %45, 1
  br i1 %46, label %47, label %49, !prof !9

47:                                               ; preds = %.thread53
  %48 = add nsw i32 %45, -1
  store i32 %48, ptr %19, align 4, !tbaa !4
  br label %lean_dec.exit28

49:                                               ; preds = %.thread53
  %.not.i33 = icmp eq i32 %45, 0
  br i1 %.not.i33, label %lean_dec.exit28, label %50

50:                                               ; preds = %49
  tail call void @lean_dec_ref_cold(ptr noundef nonnull %19) #5
  br label %lean_dec.exit28

.thread54:                                        ; preds = %lean_nat_eq.exit.thread
  %51 = load i32, ptr %19, align 4, !tbaa !4
  %52 = icmp sgt i32 %51, 1
  br i1 %52, label %53, label %55, !prof !9

53:                                               ; preds = %.thread54
  %54 = add nsw i32 %51, -1
  store i32 %54, ptr %19, align 4, !tbaa !4
  br label %lean_dec.exit28

55:                                               ; preds = %.thread54
  %.not.i35 = icmp eq i32 %51, 0
  br i1 %.not.i35, label %lean_dec.exit28, label %56

56:                                               ; preds = %55
  tail call void @lean_dec_ref_cold(ptr noundef nonnull %19) #5
  br label %lean_dec.exit28

lean_dec.exit28.fold.split:                       ; preds = %lean_nat_eq.exit
  br label %lean_dec.exit28

lean_dec.exit28:                                  ; preds = %lean_nat_eq.exit, %lean_dec.exit28.fold.split, %lean_obj_tag.exit, %53, %55, %56, %47, %49, %50, %13, %15, %16, %lean_dec.exit26
  %.0.in = phi ptr [ %l_Lean_Lsp_instFromJsonTextDocumentSyncKind___closed__2.l_Lean_Lsp_instFromJsonTextDocumentSyncKind___closed__3, %lean_dec.exit26 ], [ @l_Lean_Lsp_instFromJsonTextDocumentSyncKind___closed__2, %16 ], [ @l_Lean_Lsp_instFromJsonTextDocumentSyncKind___closed__2, %15 ], [ @l_Lean_Lsp_instFromJsonTextDocumentSyncKind___closed__2, %13 ], [ @l_Lean_Lsp_instFromJsonTextDocumentSyncKind___closed__4, %50 ], [ @l_Lean_Lsp_instFromJsonTextDocumentSyncKind___closed__4, %49 ], [ @l_Lean_Lsp_instFromJsonTextDocumentSyncKind___closed__4, %47 ], [ @l_Lean_Lsp_instFromJsonTextDocumentSyncKind___closed__5, %56 ], [ @l_Lean_Lsp_instFromJsonTextDocumentSyncKind___closed__5, %55 ], [ @l_Lean_Lsp_instFromJsonTextDocumentSyncKind___closed__5, %53 ], [ @l_Lean_Lsp_instFromJsonTextDocumentSyncKind___closed__5, %lean_nat_eq.exit ], [ @l_Lean_Lsp_instFromJsonTextDocumentSyncKind___closed__2, %lean_obj_tag.exit ], [ @l_Lean_Lsp_instFromJsonTextDocumentSyncKind___closed__4, %lean_dec.exit28.fold.split ]
  %.0 = load ptr, ptr %.0.in, align 8, !tbaa !10
  ret ptr %.0
}